; Function Attrs: mustprogress nofree norecurse nosync nounwind willreturn memory(readwrite, inaccessiblemem: none) uwtable
define void @_ZN10open_spiel9laser_tag13LaserTagState8SetFieldEiic(ptr nocapture noundef nonnull align 8 dereferenceable(240) %0, i32 noundef %1, i32 noundef %2, i8 noundef signext %3) local_unnamed_addr #7 align 2 {
  %5 = getelementptr inbounds nuw i8, ptr %0, i64 216
  %6 = getelementptr inbounds nuw i8, ptr %0, i64 64
  %7 = load ptr, ptr %6, align 8
  %8 = getelementptr inbounds nuw i8, ptr %7, i64 4
  %9 = load i32, ptr %8, align 4
  %10 = mul nsw i32 %9, %1
  %11 = add nsw i32 %10, %2
  %12 = sext i32 %11 to i64
  %13 = load ptr, ptr %5, align 8
  %14 = getelementptr inbounds i8, ptr %13, i64 %12
  store i8 %3, ptr %14, align 1
  switch i8 %3, label %18 [
    i8 65, label %.sink.split
    i8 66, label %15
  ]

15:                                               ; preds = %4
  br label %.sink.split

.sink.split:                                      ; preds = %4, %15
  %.sink10 = phi i64 [ 132, %15 ], [ 128, %4 ]
  %.sink9 = phi i64 [ 140, %15 ], [ 136, %4 ]
  %16 = getelementptr inbounds i8, ptr %0, i64 %.sink10
  store i32 %1, ptr %16, align 4
  %17 = getelementptr inbounds i8, ptr %0, i64 %.sink9
  store i32 %2, ptr %17, align 4
  br label %18

18:                                               ; preds = %.sink.split, %4
  ret void
}